; Function Attrs: mustprogress nounwind uwtable
define void @_ZN19OpenColorIO_v2_4dev9Processor7deleterEPS0_(ptr noundef %c) #4 align 2 {
entry:
  %isnull = icmp eq ptr %c, null
  br i1 %isnull, label %delete.end, label %delete.notnull

delete.notnull:                                   ; preds = %entry
  tail call void @_ZN19OpenColorIO_v2_4dev9ProcessorD1Ev(ptr noundef nonnull align 8 dereferenceable(8) %c) #22
  tail call void @_ZdlPv(ptr noundef nonnull %c) #23
  br label %delete.end

delete.end:                                       ; preds = %delete.notnull, %entry
  ret void
}